target datalayout = "e-m:e-p270:32:32-p271:32:32-p272:64:64-i64:64-i128:128-f80:128-n8:16:32:64-S128"
target triple = "x86_64-pc-linux-gnu"

%struct._zval_struct = type { %union._zend_value, %union.anon.9, %union.anon.12 }
%union._zend_value = type { i64 }
%union.anon.9 = type { i32 }
%union.anon.12 = type { i32 }
%struct._zend_refcounted_h = type { i32, %union.anon.0 }
%union.anon.0 = type { i32 }
%struct.zend_type = type { ptr, i32 }
%struct.reflection_object = type { %struct._zval_struct, ptr, ptr, i32, %struct._zend_object }
%struct._zend_object = type { %struct._zend_refcounted_h, i32, i32, ptr, ptr, ptr, [1 x %struct._zval_struct] }
%struct._zend_string = type { %struct._zend_refcounted_h, i64, i64, [1 x i8] }
%struct._type_reference = type { %struct.zend_type, i8 }

@reflection_named_type_ptr = dso_local global ptr null, align 8
@reflection_union_type_ptr = dso_local global ptr null, align 8
@reflection_intersection_type_ptr = dso_local global ptr null, align 8

; Function Attrs: alwaysinline nounwind uwtable
define internal i32 @zend_gc_addref(ptr noundef %0) #4 {
  %2 = alloca ptr, align 8
  store ptr %0, ptr %2, align 8, !tbaa !44
  br label %3

3:                                                ; preds = %1
  br label %4

4:                                                ; preds = %3
  %5 = load ptr, ptr %2, align 8, !tbaa !44
  %6 = getelementptr inbounds nuw %struct._zend_refcounted_h, ptr %5, i32 0, i32 0
  %7 = load i32, ptr %6, align 4, !tbaa !46
  %8 = add i32 %7, 1
  store i32 %8, ptr %6, align 4, !tbaa !46
  ret i32 %8
}

; Function Attrs: alwaysinline nounwind uwtable
define internal i32 @zval_gc_flags(i32 noundef %0) #4 {
  %2 = alloca i32, align 4
  store i32 %0, ptr %2, align 4, !tbaa !43
  %3 = load i32, ptr %2, align 4, !tbaa !43
  %4 = lshr i32 %3, 0
  %5 = and i32 %4, 1008
  ret i32 %5
}

; Function Attrs: alwaysinline nounwind uwtable
define internal i32 @zend_string_addref(ptr noundef %0) #4 {
  %2 = alloca i32, align 4
  %3 = alloca ptr, align 8
  store ptr %0, ptr %3, align 8, !tbaa !38
  %4 = load ptr, ptr %3, align 8, !tbaa !38
  %5 = getelementptr inbounds nuw %struct._zend_string, ptr %4, i32 0, i32 0
  %6 = getelementptr inbounds nuw %struct._zend_refcounted_h, ptr %5, i32 0, i32 1
  %7 = load i32, ptr %6, align 4, !tbaa !29
  %8 = call i32 @zval_gc_flags(i32 noundef %7)
  %9 = and i32 %8, 64
  %10 = icmp ne i32 %9, 0
  br i1 %10, label %15, label %11

11:                                               ; preds = %1
  %12 = load ptr, ptr %3, align 8, !tbaa !38
  %13 = getelementptr inbounds nuw %struct._zend_string, ptr %12, i32 0, i32 0
  %14 = call i32 @zend_gc_addref(ptr noundef %13)
  store i32 %14, ptr %2, align 4
  br label %16

15:                                               ; preds = %1
  store i32 1, ptr %2, align 4
  br label %16

16:                                               ; preds = %15, %11
  %17 = load i32, ptr %2, align 4
  ret i32 %17
}

; Function Attrs: inlinehint nounwind uwtable
define internal ptr @reflection_object_from_obj(ptr noundef %0) #3 {
  %2 = alloca ptr, align 8
  store ptr %0, ptr %2, align 8, !tbaa !39
  %3 = load ptr, ptr %2, align 8, !tbaa !39
  %4 = getelementptr inbounds i8, ptr %3, i64 -40
  ret ptr %4
}

; Function Attrs: nounwind uwtable
define internal i32 @get_type_kind(ptr %0, i32 %1) #0 {
  %3 = alloca i32, align 4
  %4 = alloca %struct.zend_type, align 8
  %5 = alloca i32, align 4
  %6 = alloca i32, align 4
  %7 = getelementptr inbounds nuw { ptr, i32 }, ptr %4, i32 0, i32 0
  store ptr %0, ptr %7, align 8
  %8 = getelementptr inbounds nuw { ptr, i32 }, ptr %4, i32 0, i32 1
  store i32 %1, ptr %8, align 8
  call void @llvm.lifetime.start.p0(i64 4, ptr %5) #14
  %9 = getelementptr inbounds nuw %struct.zend_type, ptr %4, i32 0, i32 1
  %10 = load i32, ptr %9, align 8, !tbaa !184
  %11 = and i32 %10, 262143
  %12 = and i32 %11, -3
  store i32 %12, ptr %5, align 4, !tbaa !43
  %13 = getelementptr inbounds nuw %struct.zend_type, ptr %4, i32 0, i32 1
  %14 = load i32, ptr %13, align 8, !tbaa !184
  %15 = and i32 %14, 4194304
  %16 = icmp ne i32 %15, 0
  br i1 %16, label %17, label %28

17:                                               ; preds = %2
  %18 = getelementptr inbounds nuw %struct.zend_type, ptr %4, i32 0, i32 1
  %19 = load i32, ptr %18, align 8, !tbaa !184
  %20 = and i32 %19, 524288
  %21 = icmp ne i32 %20, 0
  br i1 %21, label %22, label %23

22:                                               ; preds = %17
  store i32 2, ptr %3, align 4
  store i32 1, ptr %6, align 4
  br label %67

23:                                               ; preds = %17
  %24 = getelementptr inbounds nuw %struct.zend_type, ptr %4, i32 0, i32 1
  %25 = load i32, ptr %24, align 8, !tbaa !184
  %26 = and i32 %25, 262144
  %27 = icmp ne i32 %26, 0
  call void @llvm.assume(i1 %27)
  store i32 1, ptr %3, align 4
  store i32 1, ptr %6, align 4
  br label %67

28:                                               ; preds = %2
  %29 = getelementptr inbounds nuw %struct.zend_type, ptr %4, i32 0, i32 1
  %30 = load i32, ptr %29, align 8, !tbaa !184
  %31 = and i32 %30, 29360128
  %32 = icmp ne i32 %31, 0
  br i1 %32, label %33, label %50

33:                                               ; preds = %28
  %34 = getelementptr inbounds nuw %struct.zend_type, ptr %4, i32 0, i32 1
  %35 = load i32, ptr %34, align 8, !tbaa !184
  %36 = and i32 %35, 2097152
  %37 = icmp ne i32 %36, 0
  %38 = xor i1 %37, true
  %39 = xor i1 %38, true
  %40 = zext i1 %39 to i32
  %41 = sext i32 %40 to i64
  %42 = call i64 @llvm.expect.i64(i64 %41, i64 0)
  %43 = icmp ne i64 %42, 0
  br i1 %43, label %44, label %45

44:                                               ; preds = %33
  store i32 0, ptr %3, align 4
  store i32 1, ptr %6, align 4
  br label %67

45:                                               ; preds = %33
  %46 = load i32, ptr %5, align 4, !tbaa !43
  %47 = icmp ne i32 %46, 0
  br i1 %47, label %48, label %49

48:                                               ; preds = %45
  store i32 1, ptr %3, align 4
  store i32 1, ptr %6, align 4
  br label %67

49:                                               ; preds = %45
  store i32 0, ptr %3, align 4
  store i32 1, ptr %6, align 4
  br label %67

50:                                               ; preds = %28
  %51 = load i32, ptr %5, align 4, !tbaa !43
  %52 = icmp eq i32 %51, 12
  br i1 %52, label %58, label %53

53:                                               ; preds = %50
  %54 = getelementptr inbounds nuw %struct.zend_type, ptr %4, i32 0, i32 1
  %55 = load i32, ptr %54, align 8, !tbaa !184
  %56 = and i32 %55, 262143
  %57 = icmp eq i32 %56, 1022
  br i1 %57, label %58, label %59

58:                                               ; preds = %53, %50
  store i32 0, ptr %3, align 4
  store i32 1, ptr %6, align 4
  br label %67

59:                                               ; preds = %53
  %60 = load i32, ptr %5, align 4, !tbaa !43
  %61 = load i32, ptr %5, align 4, !tbaa !43
  %62 = sub i32 %61, 1
  %63 = and i32 %60, %62
  %64 = icmp ne i32 %63, 0
  br i1 %64, label %65, label %66

65:                                               ; preds = %59
  store i32 1, ptr %3, align 4
  store i32 1, ptr %6, align 4
  br label %67

66:                                               ; preds = %59
  store i32 0, ptr %3, align 4
  store i32 1, ptr %6, align 4
  br label %67

67:                                               ; preds = %66, %65, %58, %49, %48, %44, %23, %22
  call void @llvm.lifetime.end.p0(i64 4, ptr %5) #14
  %68 = load i32, ptr %3, align 4
  ret i32 %68
}

; Function Attrs: nounwind uwtable
define internal void @reflection_type_factory(ptr %0, i32 %1, ptr noundef %2, i1 noundef zeroext %3) #0 {
  %5 = alloca %struct.zend_type, align 8
  %6 = alloca ptr, align 8
  %7 = alloca i8, align 1
  %8 = alloca ptr, align 8
  %9 = alloca ptr, align 8
  %10 = alloca i32, align 4
  %11 = alloca i8, align 1
  %12 = alloca i8, align 1
  %13 = getelementptr inbounds nuw { ptr, i32 }, ptr %5, i32 0, i32 0
  store ptr %0, ptr %13, align 8
  %14 = getelementptr inbounds nuw { ptr, i32 }, ptr %5, i32 0, i32 1
  store i32 %1, ptr %14, align 8
  store ptr %2, ptr %6, align 8, !tbaa !9
  %15 = zext i1 %3 to i8
  store i8 %15, ptr %7, align 1, !tbaa !78
  call void @llvm.lifetime.start.p0(i64 8, ptr %8) #14
  call void @llvm.lifetime.start.p0(i64 8, ptr %9) #14
  call void @llvm.lifetime.start.p0(i64 4, ptr %10) #14
  %16 = getelementptr inbounds nuw { ptr, i32 }, ptr %5, i32 0, i32 0
  %17 = load ptr, ptr %16, align 8
  %18 = getelementptr inbounds nuw { ptr, i32 }, ptr %5, i32 0, i32 1
  %19 = load i32, ptr %18, align 8
  %20 = call i32 @get_type_kind(ptr %17, i32 %19)
  store i32 %20, ptr %10, align 4, !tbaa !43
  call void @llvm.lifetime.start.p0(i64 1, ptr %11) #14
  %21 = getelementptr inbounds nuw %struct.zend_type, ptr %5, i32 0, i32 1
  %22 = load i32, ptr %21, align 8, !tbaa !184
  %23 = and i32 %22, 262143
  %24 = icmp eq i32 %23, 1022
  %25 = zext i1 %24 to i8
  store i8 %25, ptr %11, align 1, !tbaa !78
  call void @llvm.lifetime.start.p0(i64 1, ptr %12) #14
  %26 = getelementptr inbounds nuw %struct.zend_type, ptr %5, i32 0, i32 1
  %27 = load i32, ptr %26, align 8, !tbaa !184
  %28 = and i32 %27, 262143
  %29 = icmp eq i32 %28, 2
  br i1 %29, label %30, label %36

30:                                               ; preds = %4
  %31 = getelementptr inbounds nuw %struct.zend_type, ptr %5, i32 0, i32 1
  %32 = load i32, ptr %31, align 8, !tbaa !184
  %33 = and i32 %32, 29360128
  %34 = icmp ne i32 %33, 0
  %35 = xor i1 %34, true
  br label %36

36:                                               ; preds = %30, %4
  %37 = phi i1 [ false, %4 ], [ %35, %30 ]
  %38 = zext i1 %37 to i8
  store i8 %38, ptr %12, align 1, !tbaa !78
  %39 = load i32, ptr %10, align 4, !tbaa !43
  switch i32 %39, label %52 [
    i32 2, label %40
    i32 1, label %44
    i32 0, label %48
  ]

40:                                               ; preds = %36
  %41 = load ptr, ptr %6, align 8, !tbaa !9
  %42 = load ptr, ptr @reflection_intersection_type_ptr, align 8, !tbaa !4
  %43 = call i32 @object_init_ex(ptr noundef %41, ptr noundef %42)
  br label %53

44:                                               ; preds = %36
  %45 = load ptr, ptr %6, align 8, !tbaa !9
  %46 = load ptr, ptr @reflection_union_type_ptr, align 8, !tbaa !4
  %47 = call i32 @object_init_ex(ptr noundef %45, ptr noundef %46)
  br label %53

48:                                               ; preds = %36
  %49 = load ptr, ptr %6, align 8, !tbaa !9
  %50 = load ptr, ptr @reflection_named_type_ptr, align 8, !tbaa !4
  %51 = call i32 @object_init_ex(ptr noundef %49, ptr noundef %50)
  br label %53

52:                                               ; preds = %36
  unreachable

53:                                               ; preds = %48, %44, %40
  %54 = load ptr, ptr %6, align 8, !tbaa !9
  %55 = getelementptr inbounds nuw %struct._zval_struct, ptr %54, i32 0, i32 0
  %56 = load ptr, ptr %55, align 8, !tbaa !29
  %57 = call ptr @reflection_object_from_obj(ptr noundef %56)
  store ptr %57, ptr %8, align 8, !tbaa !30
  %58 = call noalias ptr @_emalloc_24()
  store ptr %58, ptr %9, align 8, !tbaa !185
  %59 = load ptr, ptr %9, align 8, !tbaa !185
  %60 = getelementptr inbounds nuw %struct._type_reference, ptr %59, i32 0, i32 0
  call void @llvm.memcpy.p0.p0.i64(ptr align 8 %60, ptr align 8 %5, i64 16, i1 false), !tbaa.struct !187
  %61 = load i8, ptr %7, align 1, !tbaa !78, !range !79, !noundef !80
  %62 = trunc i8 %61 to i1
  br i1 %62, label %63, label %73

63:                                               ; preds = %53
  %64 = load i32, ptr %10, align 4, !tbaa !43
  %65 = icmp eq i32 %64, 0
  br i1 %65, label %66, label %73

66:                                               ; preds = %63
  %67 = load i8, ptr %11, align 1, !tbaa !78, !range !79, !noundef !80
  %68 = trunc i8 %67 to i1
  br i1 %68, label %73, label %69

69:                                               ; preds = %66
  %70 = load i8, ptr %12, align 1, !tbaa !78, !range !79, !noundef !80
  %71 = trunc i8 %70 to i1
  %72 = xor i1 %71, true
  br label %73

73:                                               ; preds = %69, %66, %63, %53
  %74 = phi i1 [ false, %66 ], [ false, %63 ], [ false, %53 ], [ %72, %69 ]
  %75 = load ptr, ptr %9, align 8, !tbaa !185
  %76 = getelementptr inbounds nuw %struct._type_reference, ptr %75, i32 0, i32 1
  %77 = zext i1 %74 to i8
  store i8 %77, ptr %76, align 8, !tbaa !188
  %78 = load ptr, ptr %9, align 8, !tbaa !185
  %79 = load ptr, ptr %8, align 8, !tbaa !30
  %80 = getelementptr inbounds nuw %struct.reflection_object, ptr %79, i32 0, i32 1
  store ptr %78, ptr %80, align 8, !tbaa !31
  %81 = load ptr, ptr %8, align 8, !tbaa !30
  %82 = getelementptr inbounds nuw %struct.reflection_object, ptr %81, i32 0, i32 3
  store i32 5, ptr %82, align 8, !tbaa !35
  %83 = getelementptr inbounds nuw %struct.zend_type, ptr %5, i32 0, i32 1
  %84 = load i32, ptr %83, align 8, !tbaa !184
  %85 = and i32 %84, 16777216
  %86 = icmp ne i32 %85, 0
  br i1 %86, label %87, label %91

87:                                               ; preds = %73
  %88 = getelementptr inbounds nuw %struct.zend_type, ptr %5, i32 0, i32 0
  %89 = load ptr, ptr %88, align 8, !tbaa !190
  %90 = call i32 @zend_string_addref(ptr noundef %89)
  br label %91

91:                                               ; preds = %87, %73
  call void @llvm.lifetime.end.p0(i64 1, ptr %12) #14
  call void @llvm.lifetime.end.p0(i64 1, ptr %11) #14
  call void @llvm.lifetime.end.p0(i64 4, ptr %10) #14
  call void @llvm.lifetime.end.p0(i64 8, ptr %9) #14
  call void @llvm.lifetime.end.p0(i64 8, ptr %8) #14
  ret void
}