; Function Attrs: nounwind uwtable
define internal fastcc void @reflection_type_factory(ptr %0, i32 %1, ptr noundef %2, i1 noundef zeroext %3) unnamed_addr #0 {
  %5 = and i32 %1, 262143
  %6 = and i32 %1, 262141
  %7 = and i32 %1, 4194304
  %.not.i19 = icmp eq i32 %7, 0
  br i1 %.not.i19, label %11, label %8

8:                                                ; preds = %4
  %9 = and i32 %1, 524288
  %.not16.i = icmp eq i32 %9, 0
  %10 = icmp eq i32 %5, 1022
  %spec.select = select i1 %.not16.i, ptr @reflection_union_type_ptr, ptr @reflection_intersection_type_ptr
  br label %get_type_kind.exit.thread24

11:                                               ; preds = %4
  %12 = and i32 %1, 25165824
  %.not12.i = icmp eq i32 %12, 0
  br i1 %.not12.i, label %19, label %13

13:                                               ; preds = %11
  %14 = and i32 %1, 2097152
  %.not14.i = icmp eq i32 %14, 0
  br i1 %.not14.i, label %15, label %get_type_kind.exit.thread, !prof !70

15:                                               ; preds = %13
  %.not15.i.not = icmp eq i32 %6, 0
  %16 = icmp eq i32 %5, 1022
  %17 = and i32 %1, 25427967
  %18 = icmp ne i32 %17, 2
  br i1 %.not15.i.not, label %28, label %get_type_kind.exit.thread24

19:                                               ; preds = %11
  %20 = icmp eq i32 %6, 12
  %21 = icmp eq i32 %5, 1022
  %or.cond.i = or i1 %20, %21
  br i1 %or.cond.i, label %get_type_kind.exit.thread, label %get_type_kind.exit

get_type_kind.exit.thread:                        ; preds = %13, %19
  %22 = icmp eq i32 %5, 1022
  %23 = and i32 %1, 25427967
  %24 = icmp ne i32 %23, 2
  br label %28

get_type_kind.exit:                               ; preds = %19
  %25 = tail call range(i32 0, 18) i32 @llvm.ctpop.i32(i32 %6)
  %.not13.i = icmp samesign ugt i32 %25, 1
  %26 = and i32 %1, 262143
  %27 = icmp ne i32 %26, 2
  br i1 %.not13.i, label %get_type_kind.exit.thread24, label %28

28:                                               ; preds = %15, %get_type_kind.exit, %get_type_kind.exit.thread
  %29 = phi i1 [ %24, %get_type_kind.exit.thread ], [ %27, %get_type_kind.exit ], [ %18, %15 ]
  %30 = phi i1 [ %22, %get_type_kind.exit.thread ], [ false, %get_type_kind.exit ], [ %16, %15 ]
  br label %get_type_kind.exit.thread24

get_type_kind.exit.thread24:                      ; preds = %8, %get_type_kind.exit, %15, %28
  %reflection_named_type_ptr.sink = phi ptr [ @reflection_named_type_ptr, %28 ], [ @reflection_union_type_ptr, %15 ], [ @reflection_union_type_ptr, %get_type_kind.exit ], [ %spec.select, %8 ]
  %31 = phi i1 [ %29, %28 ], [ %18, %15 ], [ %27, %get_type_kind.exit ], [ true, %8 ]
  %32 = phi i1 [ %30, %28 ], [ %16, %15 ], [ false, %get_type_kind.exit ], [ %10, %8 ]
  %33 = phi i1 [ true, %28 ], [ false, %15 ], [ false, %get_type_kind.exit ], [ false, %8 ]
  %34 = load ptr, ptr %reflection_named_type_ptr.sink, align 8, !tbaa !38
  %35 = tail call i32 @object_init_ex(ptr noundef %2, ptr noundef %34) #13
  %36 = load ptr, ptr %2, align 8, !tbaa !26
  %37 = tail call noalias ptr @_emalloc_24() #13
  store ptr %0, ptr %37, align 8, !tbaa !106
  %.sroa.4.0..sroa_idx = getelementptr inbounds nuw i8, ptr %37, i64 8
  store i32 %1, ptr %.sroa.4.0..sroa_idx, align 8, !tbaa !178
  %or.cond = and i1 %3, %33
  %not. = xor i1 %32, true
  %narrow = and i1 %31, %not.
  %narrow30 = and i1 %narrow, %or.cond
  %38 = zext i1 %narrow30 to i8
  %39 = getelementptr inbounds nuw i8, ptr %37, i64 16
  store i8 %38, ptr %39, align 8, !tbaa !179
  %40 = getelementptr inbounds i8, ptr %36, i64 -24
  store ptr %37, ptr %40, align 8, !tbaa !27
  %41 = getelementptr inbounds i8, ptr %36, i64 -8
  store i32 5, ptr %41, align 8, !tbaa !32
  %42 = and i32 %1, 16777216
  %.not = icmp eq i32 %42, 0
  br i1 %.not, label %zend_string_addref.exit, label %43

43:                                               ; preds = %get_type_kind.exit.thread24
  %44 = getelementptr inbounds nuw i8, ptr %0, i64 4
  %45 = load i32, ptr %44, align 4, !tbaa !26
  %46 = and i32 %45, 64
  %.not.i = icmp eq i32 %46, 0
  br i1 %.not.i, label %47, label %zend_string_addref.exit

47:                                               ; preds = %43
  %48 = load i32, ptr %0, align 4, !tbaa !37
  %49 = add i32 %48, 1
  store i32 %49, ptr %0, align 4, !tbaa !37
  br label %zend_string_addref.exit

zend_string_addref.exit:                          ; preds = %47, %43, %get_type_kind.exit.thread24
  ret void
}